target datalayout = "e-m:e-p270:32:32-p271:32:32-p272:64:64-i64:64-i128:128-f80:128-n8:16:32:64-S128"
target triple = "x86_64-pc-linux-gnu"

%struct.TS_resp_ctx = type { ptr, ptr, ptr, ptr, ptr, ptr, ptr, ptr, ptr, ptr, ptr, i32, i32, ptr, ptr, ptr, ptr, ptr, ptr, ptr, ptr, ptr, ptr, ptr }
%struct.TS_status_info_st = type { ptr, ptr, ptr }
%struct.TS_resp_st = type { ptr, ptr, ptr }

; Function Attrs: nounwind uwtable
define i32 @TS_RESP_CTX_set_status_info_cond(ptr noundef %0, i32 noundef %1, ptr noundef %2) #0 {
  %4 = alloca ptr, align 8
  %5 = alloca i32, align 4
  %6 = alloca ptr, align 8
  %7 = alloca i32, align 4
  %8 = alloca ptr, align 8
  store ptr %0, ptr %4, align 8, !tbaa !10
  store i32 %1, ptr %5, align 4, !tbaa !60
  store ptr %2, ptr %6, align 8, !tbaa !8
  call void @llvm.lifetime.start.p0(i64 4, ptr %7) #7
  store i32 1, ptr %7, align 4, !tbaa !60
  call void @llvm.lifetime.start.p0(i64 8, ptr %8) #7
  %9 = load ptr, ptr %4, align 8, !tbaa !10
  %10 = getelementptr inbounds nuw %struct.TS_resp_ctx, ptr %9, i32 0, i32 20
  %11 = load ptr, ptr %10, align 8, !tbaa !71
  %12 = getelementptr inbounds nuw %struct.TS_resp_st, ptr %11, i32 0, i32 0
  %13 = load ptr, ptr %12, align 8, !tbaa !73
  store ptr %13, ptr %8, align 8, !tbaa !65
  %14 = load ptr, ptr %8, align 8, !tbaa !65
  %15 = getelementptr inbounds nuw %struct.TS_status_info_st, ptr %14, i32 0, i32 0
  %16 = load ptr, ptr %15, align 8, !tbaa !67
  %17 = call i64 @ASN1_INTEGER_get(ptr noundef %16)
  %18 = icmp eq i64 %17, 0
  br i1 %18, label %19, label %24

19:                                               ; preds = %3
  %20 = load ptr, ptr %4, align 8, !tbaa !10
  %21 = load i32, ptr %5, align 4, !tbaa !60
  %22 = load ptr, ptr %6, align 8, !tbaa !8
  %23 = call i32 @TS_RESP_CTX_set_status_info(ptr noundef %20, i32 noundef %21, ptr noundef %22)
  store i32 %23, ptr %7, align 4, !tbaa !60
  br label %24

24:                                               ; preds = %19, %3
  %25 = load i32, ptr %7, align 4, !tbaa !60
  call void @llvm.lifetime.end.p0(i64 8, ptr %8) #7
  call void @llvm.lifetime.end.p0(i64 4, ptr %7) #7
  ret i32 %25
}