; Function Attrs: nounwind uwtable
define range(i32 0, 2) i32 @TS_RESP_CTX_set_status_info_cond(ptr noundef readonly captures(none) %0, i32 noundef %1, ptr noundef %2) local_unnamed_addr #0 {
  %4 = getelementptr inbounds nuw i8, ptr %0, i64 152
  %5 = load ptr, ptr %4, align 8, !tbaa !26
  %6 = load ptr, ptr %5, align 8, !tbaa !27
  %7 = load ptr, ptr %6, align 8, !tbaa !50
  %8 = tail call i64 @ASN1_INTEGER_get(ptr noundef %7) #9
  %9 = icmp eq i64 %8, 0
  br i1 %9, label %10, label %12

10:                                               ; preds = %3
  %11 = tail call i32 @TS_RESP_CTX_set_status_info(ptr noundef nonnull %0, i32 noundef %1, ptr noundef %2)
  br label %12

12:                                               ; preds = %10, %3
  %.0 = phi i32 [ %11, %10 ], [ 1, %3 ]
  ret i32 %.0
}